target datalayout = "e-m:e-p270:32:32-p271:32:32-p272:64:64-i64:64-i128:128-f80:128-n8:16:32:64-S128"
target triple = "x86_64-pc-linux-gnu"

%struct._dtd_preparse_scanner_state = type { ptr, ptr, i32, ptr, ptr, ptr, ptr, ptr }

@dtd_location.loc = internal global ptr null, align 8
@.str.13 = private unnamed_addr constant [31 x i8] c"<? wireshark:location %s:%u ?>\00", align 1

; Function Attrs: null_pointer_is_valid sspstrong uwtable
define hidden ptr @dtd_location(ptr noundef %0) #0 {
  %2 = alloca ptr, align 8
  %3 = alloca ptr, align 8
  store ptr %0, ptr %3, align 8
  %4 = load ptr, ptr @dtd_location.loc, align 8
  call void @g_free(ptr noundef %4)
  %5 = load ptr, ptr %3, align 8
  %6 = icmp ne ptr %5, null
  br i1 %6, label %8, label %7

7:                                                ; preds = %1
  store ptr null, ptr %2, align 8
  br label %17

8:                                                ; preds = %1
  %9 = load ptr, ptr %3, align 8
  %10 = getelementptr inbounds nuw %struct._dtd_preparse_scanner_state, ptr %9, i32 0, i32 1
  %11 = load ptr, ptr %10, align 8
  %12 = load ptr, ptr %3, align 8
  %13 = getelementptr inbounds nuw %struct._dtd_preparse_scanner_state, ptr %12, i32 0, i32 2
  %14 = load i32, ptr %13, align 8
  %15 = call noalias ptr (ptr, ptr, ...) @wmem_strdup_printf(ptr noundef null, ptr noundef @.str.13, ptr noundef %11, i32 noundef %14)
  store ptr %15, ptr @dtd_location.loc, align 8
  %16 = load ptr, ptr @dtd_location.loc, align 8
  store ptr %16, ptr %2, align 8
  br label %17

17:                                               ; preds = %8, %7
  %18 = load ptr, ptr %2, align 8
  ret ptr %18
}