; Function Attrs: null_pointer_is_valid sspstrong uwtable
define hidden ptr @dtd_location(ptr noundef readonly captures(address_is_null) %0) local_unnamed_addr #0 {
  %2 = load ptr, ptr @dtd_location.loc, align 8
  tail call void @g_free(ptr noundef %2)
  %.not = icmp eq ptr %0, null
  br i1 %.not, label %9, label %3

3:                                                ; preds = %1
  %4 = getelementptr inbounds nuw i8, ptr %0, i64 8
  %5 = load ptr, ptr %4, align 8
  %6 = getelementptr inbounds nuw i8, ptr %0, i64 16
  %7 = load i32, ptr %6, align 8
  %8 = tail call noalias ptr (ptr, ptr, ...) @wmem_strdup_printf(ptr noundef null, ptr noundef nonnull @.str.13, ptr noundef %5, i32 noundef %7)
  store ptr %8, ptr @dtd_location.loc, align 8
  br label %9

9:                                                ; preds = %1, %3
  %.0 = phi ptr [ %8, %3 ], [ null, %1 ]
  ret ptr %.0
}